target datalayout = "e-m:e-p270:32:32-p271:32:32-p272:64:64-i64:64-i128:128-f80:128-n8:16:32:64-S128"
target triple = "x86_64-pc-linux-gnu"

%struct.archive_crypto_ctx = type { ptr, ptr, [32 x i8], i32, [16 x i8], [16 x i8], i32 }

; Function Attrs: nounwind uwtable
define internal i32 @aes_ctr_release(ptr noundef %0) #0 {
  %2 = alloca ptr, align 8
  store ptr %0, ptr %2, align 8, !tbaa !13
  %3 = load ptr, ptr %2, align 8, !tbaa !13
  %4 = getelementptr inbounds nuw %struct.archive_crypto_ctx, ptr %3, i32 0, i32 0
  %5 = load ptr, ptr %4, align 8, !tbaa !14
  call void @EVP_CIPHER_CTX_free(ptr noundef %5)
  %6 = load ptr, ptr %2, align 8, !tbaa !13
  %7 = getelementptr inbounds nuw %struct.archive_crypto_ctx, ptr %6, i32 0, i32 2
  %8 = getelementptr inbounds [32 x i8], ptr %7, i64 0, i64 0
  %9 = load ptr, ptr %2, align 8, !tbaa !13
  %10 = getelementptr inbounds nuw %struct.archive_crypto_ctx, ptr %9, i32 0, i32 3
  %11 = load i32, ptr %10, align 8, !tbaa !19
  %12 = zext i32 %11 to i64
  call void @OPENSSL_cleanse(ptr noundef %8, i64 noundef %12)
  %13 = load ptr, ptr %2, align 8, !tbaa !13
  %14 = getelementptr inbounds nuw %struct.archive_crypto_ctx, ptr %13, i32 0, i32 4
  %15 = getelementptr inbounds [16 x i8], ptr %14, i64 0, i64 0
  call void @OPENSSL_cleanse(ptr noundef %15, i64 noundef 16)
  ret i32 0
}