; Function Attrs: nounwind uwtable
define internal noundef i32 @aes_ctr_release(ptr noundef %0) #1 {
  %2 = load ptr, ptr %0, align 8, !tbaa !4
  tail call void @EVP_CIPHER_CTX_free(ptr noundef %2) #7
  %3 = getelementptr inbounds nuw i8, ptr %0, i64 16
  %4 = getelementptr inbounds nuw i8, ptr %0, i64 48
  %5 = load i32, ptr %4, align 8, !tbaa !13
  %6 = zext i32 %5 to i64
  tail call void @OPENSSL_cleanse(ptr noundef nonnull %3, i64 noundef %6) #7
  %7 = getelementptr inbounds nuw i8, ptr %0, i64 52
  tail call void @OPENSSL_cleanse(ptr noundef nonnull %7, i64 noundef 16) #7
  ret i32 0
}